; ModuleID = '54/956.c'
source_filename = "54/956.c"
target datalayout = "e-m:e-p270:32:32-p271:32:32-p272:64:64-i64:64-f80:128-n8:16:32:64-S128"
target triple = "x86_64-pc-linux-gnu"

@.str = private unnamed_addr constant [5 x i8] c"%d%d\00", align 1
@.str.1 = private unnamed_addr constant [4 x i8] c"%d\0A\00", align 1

; Function Attrs: noinline nounwind uwtable
define dso_local i32 @getup(i32 %0, i32 %1, i32 %2) #0 {
  %4 = alloca i32, align 4
  %5 = alloca i32, align 4
  %6 = alloca i32, align 4
  store i32 %0, i32* %4, align 4
  store i32 %1, i32* %5, align 4
  store i32 %2, i32* %6, align 4
  %7 = load i32, i32* %4, align 4
  %8 = load i32, i32* %5, align 4
  %9 = mul nsw i32 %7, %8
  %10 = load i32, i32* %6, align 4
  %11 = add nsw i32 %9, %10
  ret i32 %11
}

; Function Attrs: noinline nounwind uwtable
define dso_local i32 @main() #0 {
  %1 = alloca i32, align 4
  %2 = alloca i32, align 4
  %3 = alloca i32, align 4
  %4 = alloca i32, align 4
  %5 = alloca i32, align 4
  %6 = alloca i32, align 4
  %7 = alloca i32, align 4
  store i32 0, i32* %1, align 4
  store i32 1, i32* %2, align 4
  store i32 1, i32* %5, align 4
  %8 = call i32 (i8*, ...) @__isoc99_scanf(i8* getelementptr inbounds ([5 x i8], [5 x i8]* @.str, i64 0, i64 0), i32* %3, i32* %4)
  %9 = load i32, i32* %4, align 4
  store i32 %9, i32* %6, align 4
  %10 = load i32, i32* %4, align 4
  store i32 %10, i32* %7, align 4
  br label %11

11:                                               ; preds = %36, %0
  %12 = load i32, i32* %2, align 4
  %13 = load i32, i32* %3, align 4
  %14 = icmp slt i32 %12, %13
  br i1 %14, label %15, label %37

15:                                               ; preds = %11
  %16 = load i32, i32* %6, align 4
  %17 = load i32, i32* %3, align 4
  %18 = load i32, i32* %4, align 4
  %19 = call i32 @getup(i32 %16, i32 %17, i32 %18)
  store i32 %19, i32* %6, align 4
  %20 = load i32, i32* %6, align 4
  %21 = load i32, i32* %3, align 4
  %22 = sub nsw i32 %21, 1
  %23 = srem i32 %20, %22
  %24 = icmp eq i32 %23, 0
  br i1 %24, label %25, label %32

25:                                               ; preds = %15
  %26 = load i32, i32* %2, align 4
  %27 = add nsw i32 %26, 1
  store i32 %27, i32* %2, align 4
  %28 = load i32, i32* %3, align 4
  %29 = sub nsw i32 %28, 1
  %30 = load i32, i32* %6, align 4
  %31 = sdiv i32 %30, %29
  store i32 %31, i32* %6, align 4
  br label %36

32:                                               ; preds = %15
  %33 = load i32, i32* %7, align 4
  %34 = add nsw i32 %33, 1
  store i32 %34, i32* %7, align 4
  %35 = load i32, i32* %7, align 4
  store i32 %35, i32* %6, align 4
  store i32 1, i32* %2, align 4
  br label %36

36:                                               ; preds = %32, %25
  br label %11

37:                                               ; preds = %11
  %38 = load i32, i32* %6, align 4
  %39 = load i32, i32* %3, align 4
  %40 = load i32, i32* %4, align 4
  %41 = call i32 @getup(i32 %38, i32 %39, i32 %40)
  %42 = call i32 (i8*, ...) @printf(i8* getelementptr inbounds ([4 x i8], [4 x i8]* @.str.1, i64 0, i64 0), i32 %41)
  %43 = load i32, i32* %1, align 4
  ret i32 %43
}

declare dso_local i32 @__isoc99_scanf(i8*, ...) #1

declare dso_local i32 @printf(i8*, ...) #1


!llvm.module.flags = !{!0}
!llvm.ident = !{!1}

!0 = !{i32 1, !"wchar_size", i32 4}
!1 = !{!"clang version 10.0.0-4ubuntu1 "}
