; ModuleID = 'source-C-CXX/53/956.c'
source_filename = "source-C-CXX/53/956.c"
target datalayout = "e-m:e-p270:32:32-p271:32:32-p272:64:64-i64:64-f80:128-n8:16:32:64-S128"
target triple = "x86_64-pc-linux-gnu"

@.str = private unnamed_addr constant [5 x i8] c"%d%d\00", align 1
@.str.1 = private unnamed_addr constant [4 x i8] c"%d\0A\00", align 1

; Function Attrs: mustprogress nofree norecurse nosync nounwind readnone sspstrong uwtable willreturn
define dso_local i32 @getup(i32 %0, i32 %1, i32 %2) local_unnamed_addr #0 {
  %4 = mul nsw i32 %1, %0
  %5 = add nsw i32 %4, %2
  ret i32 %5
}

; Function Attrs: nofree nounwind sspstrong uwtable
define dso_local i32 @main() local_unnamed_addr #1 {
  %1 = alloca i32, align 4
  %2 = alloca i32, align 4
  %3 = bitcast i32* %1 to i8*
  call void @llvm.lifetime.start.p0i8(i64 4, i8* nonnull %3) #4
  %4 = bitcast i32* %2 to i8*
  call void @llvm.lifetime.start.p0i8(i64 4, i8* nonnull %4) #4
  %5 = call i32 (i8*, ...) @__isoc99_scanf(i8* getelementptr inbounds ([5 x i8], [5 x i8]* @.str, i64 0, i64 0), i32* nonnull %1, i32* nonnull %2)
  %6 = load i32, i32* %2, align 4, !tbaa !5
  %7 = load i32, i32* %1, align 4, !tbaa !5
  %8 = add nsw i32 %7, -1
  %9 = icmp sgt i32 %7, 1
  br i1 %9, label %10, label %25

10:                                               ; preds = %0, %10
  %11 = phi i32 [ %23, %10 ], [ %6, %0 ]
  %12 = phi i32 [ %22, %10 ], [ %6, %0 ]
  %13 = phi i32 [ %21, %10 ], [ 1, %0 ]
  %14 = mul nsw i32 %7, %12
  %15 = add nsw i32 %14, %6
  %16 = srem i32 %15, %8
  %17 = sdiv i32 %15, %8
  %18 = icmp eq i32 %16, 0
  %19 = add nsw i32 %13, 1
  %20 = add nsw i32 %11, 1
  %21 = select i1 %18, i32 %19, i32 1
  %22 = select i1 %18, i32 %17, i32 %20
  %23 = select i1 %18, i32 %11, i32 %20
  %24 = icmp slt i32 %21, %7
  br i1 %24, label %10, label %25, !llvm.loop !9

25:                                               ; preds = %10, %0
  %26 = phi i32 [ %6, %0 ], [ %22, %10 ]
  %27 = mul nsw i32 %7, %26
  %28 = add nsw i32 %27, %6
  %29 = call i32 (i8*, ...) @printf(i8* nonnull dereferenceable(1) getelementptr inbounds ([4 x i8], [4 x i8]* @.str.1, i64 0, i64 0), i32 %28)
  call void @llvm.lifetime.end.p0i8(i64 4, i8* nonnull %4) #4
  call void @llvm.lifetime.end.p0i8(i64 4, i8* nonnull %3) #4
  ret i32 0
}

; Function Attrs: argmemonly mustprogress nofree nosync nounwind willreturn
declare void @llvm.lifetime.start.p0i8(i64 immarg, i8* nocapture) #2

; Function Attrs: nofree nounwind
declare noundef i32 @__isoc99_scanf(i8* nocapture noundef readonly, ...) local_unnamed_addr #3

; Function Attrs: nofree nounwind
declare noundef i32 @printf(i8* nocapture noundef readonly, ...) local_unnamed_addr #3

; Function Attrs: argmemonly mustprogress nofree nosync nounwind willreturn
declare void @llvm.lifetime.end.p0i8(i64 immarg, i8* nocapture) #2


!llvm.module.flags = !{!0, !1, !2, !3}
!llvm.ident = !{!4}

!0 = !{i32 1, !"wchar_size", i32 4}
!1 = !{i32 7, !"PIC Level", i32 2}
!2 = !{i32 7, !"PIE Level", i32 2}
!3 = !{i32 7, !"uwtable", i32 1}
!4 = !{!"clang version 13.0.0"}
!5 = !{!6, !6, i64 0}
!6 = !{!"int", !7, i64 0}
!7 = !{!"omnipotent char", !8, i64 0}
!8 = !{!"Simple C/C++ TBAA"}
!9 = distinct !{!9, !10}
!10 = !{!"llvm.loop.mustprogress"}
